target datalayout = "e-m:e-p270:32:32-p271:32:32-p272:64:64-i64:64-i128:128-f80:128-n8:16:32:64-S128"
target triple = "x86_64-pc-linux-gnu"

%"struct.pbrt::ThreadStatsState" = type { %"class.pbrt::Point2", i8, %"class.std::chrono::time_point", %"class.pbrt::PixelStatsAccumulator" }
%"class.pbrt::Point2" = type { %"class.pbrt::Tuple2" }
%"class.pbrt::Tuple2" = type { i32, i32 }
%"class.std::chrono::time_point" = type { %"class.std::chrono::duration" }
%"class.std::chrono::duration" = type { i64 }
%"class.pbrt::PixelStatsAccumulator" = type { ptr }
%"struct.std::_Vector_base.4" = type { %"struct.std::_Vector_base<void (*)(pbrt::Point2<int>, int, pbrt::PixelStatsAccumulator &), std::allocator<void (*)(pbrt::Point2<int>, int, pbrt::PixelStatsAccumulator &)>>::_Vector_impl" }
%"struct.std::_Vector_base<void (*)(pbrt::Point2<int>, int, pbrt::PixelStatsAccumulator &), std::allocator<void (*)(pbrt::Point2<int>, int, pbrt::PixelStatsAccumulator &)>>::_Vector_impl" = type { %"struct.std::_Vector_base<void (*)(pbrt::Point2<int>, int, pbrt::PixelStatsAccumulator &), std::allocator<void (*)(pbrt::Point2<int>, int, pbrt::PixelStatsAccumulator &)>>::_Vector_impl_data" }
%"struct.std::_Vector_base<void (*)(pbrt::Point2<int>, int, pbrt::PixelStatsAccumulator &), std::allocator<void (*)(pbrt::Point2<int>, int, pbrt::PixelStatsAccumulator &)>>::_Vector_impl_data" = type { ptr, ptr, ptr }

@_ZN4pbrt17pixelStatsEnabledE = dso_local global i8 0, align 1
@_ZN4pbrtL16threadStatsStateE = internal thread_local global %"struct.pbrt::ThreadStatsState" zeroinitializer, align 8
@.str = private unnamed_addr constant [117 x i8] c"generated/home/dtcxzyw/WorkSpace/Projects/compilers/llvm-opt-benchmark/bench/pbrt-v4/pbrt-v4/src/pbrt/util/stats.cpp\00", align 1
@.str.6 = private unnamed_addr constant [17 x i8] c"Check failed: %s\00", align 1
@.str.8 = private unnamed_addr constant [33 x i8] c"tss.active == true && tss.p == p\00", align 1
@_ZN4pbrtL14pixelStatFuncsE = internal global ptr null, align 8
@_ZTHN4pbrtL16threadStatsStateE = internal alias void (), ptr @__tls_init

; Function Attrs: mustprogress nounwind uwtable
define linkonce_odr dso_local void @_ZNSt6chrono8durationIlSt5ratioILl1ELl1000000000EEEC2IlvEERKT_(ptr noundef nonnull align 8 dereferenceable(8) %0, ptr noundef nonnull align 8 dereferenceable(8) %1) unnamed_addr #4 comdat align 2 {
  %3 = alloca ptr, align 8
  %4 = alloca ptr, align 8
  store ptr %0, ptr %3, align 8, !tbaa !79
  store ptr %1, ptr %4, align 8, !tbaa !187
  %5 = load ptr, ptr %3, align 8
  %6 = getelementptr inbounds nuw %"class.std::chrono::duration", ptr %5, i32 0, i32 0
  %7 = load ptr, ptr %4, align 8, !tbaa !187
  %8 = load i64, ptr %7, align 8, !tbaa !56
  store i64 %8, ptr %6, align 8, !tbaa !81
  ret void
}

; Function Attrs: mustprogress nounwind uwtable
define linkonce_odr dso_local noundef nonnull align 8 dereferenceable(8) ptr @_ZNSt6vectorIPFvN4pbrt6Point2IiEEiRNS0_21PixelStatsAccumulatorEESaIS6_EEixEm(ptr noundef nonnull align 8 dereferenceable(24) %0, i64 noundef %1) #4 comdat align 2 {
  %3 = alloca ptr, align 8
  %4 = alloca i64, align 8
  store ptr %0, ptr %3, align 8, !tbaa !82
  store i64 %1, ptr %4, align 8, !tbaa !56
  %5 = load ptr, ptr %3, align 8
  %6 = getelementptr inbounds nuw %"struct.std::_Vector_base.4", ptr %5, i32 0, i32 0
  %7 = getelementptr inbounds nuw %"struct.std::_Vector_base<void (*)(pbrt::Point2<int>, int, pbrt::PixelStatsAccumulator &), std::allocator<void (*)(pbrt::Point2<int>, int, pbrt::PixelStatsAccumulator &)>>::_Vector_impl_data", ptr %6, i32 0, i32 0
  %8 = load ptr, ptr %7, align 8, !tbaa !99
  %9 = load i64, ptr %4, align 8, !tbaa !56
  %10 = getelementptr inbounds nuw ptr, ptr %8, i64 %9
  ret ptr %10
}

; Function Attrs: mustprogress nounwind uwtable
define linkonce_odr dso_local noundef i64 @_ZNKSt6vectorIPFvN4pbrt6Point2IiEEiRNS0_21PixelStatsAccumulatorEESaIS6_EE4sizeEv(ptr noundef nonnull align 8 dereferenceable(24) %0) #4 comdat align 2 {
  %2 = alloca ptr, align 8
  store ptr %0, ptr %2, align 8, !tbaa !82
  %3 = load ptr, ptr %2, align 8
  %4 = getelementptr inbounds nuw %"struct.std::_Vector_base.4", ptr %3, i32 0, i32 0
  %5 = getelementptr inbounds nuw %"struct.std::_Vector_base<void (*)(pbrt::Point2<int>, int, pbrt::PixelStatsAccumulator &), std::allocator<void (*)(pbrt::Point2<int>, int, pbrt::PixelStatsAccumulator &)>>::_Vector_impl_data", ptr %4, i32 0, i32 1
  %6 = load ptr, ptr %5, align 8, !tbaa !96
  %7 = getelementptr inbounds nuw %"struct.std::_Vector_base.4", ptr %3, i32 0, i32 0
  %8 = getelementptr inbounds nuw %"struct.std::_Vector_base<void (*)(pbrt::Point2<int>, int, pbrt::PixelStatsAccumulator &), std::allocator<void (*)(pbrt::Point2<int>, int, pbrt::PixelStatsAccumulator &)>>::_Vector_impl_data", ptr %7, i32 0, i32 0
  %9 = load ptr, ptr %8, align 8, !tbaa !99
  %10 = ptrtoint ptr %6 to i64
  %11 = ptrtoint ptr %9 to i64
  %12 = sub i64 %10, %11
  %13 = sdiv exact i64 %12, 8
  ret i64 %13
}

; Function Attrs: mustprogress uwtable
define linkonce_odr dso_local i64 @_ZNSt6chrono20__duration_cast_implINS_8durationIlSt5ratioILl1ELl1000000000EEEES2_ILl1ELl1EElLb1ELb1EE6__castIlS3_EES4_RKNS1_IT_T0_EE(ptr noundef nonnull align 8 dereferenceable(8) %0) #1 comdat align 2 {
  %2 = alloca %"class.std::chrono::duration", align 8
  %3 = alloca ptr, align 8
  %4 = alloca i64, align 8
  store ptr %0, ptr %3, align 8, !tbaa !79
  call void @llvm.lifetime.start.p0(i64 8, ptr %4) #5
  %5 = load ptr, ptr %3, align 8, !tbaa !79
  %6 = call noundef i64 @_ZNKSt6chrono8durationIlSt5ratioILl1ELl1000000000EEE5countEv(ptr noundef nonnull align 8 dereferenceable(8) %5)
  store i64 %6, ptr %4, align 8, !tbaa !56
  call void @_ZNSt6chrono8durationIlSt5ratioILl1ELl1000000000EEEC2IlvEERKT_(ptr noundef nonnull align 8 dereferenceable(8) %2, ptr noundef nonnull align 8 dereferenceable(8) %4)
  call void @llvm.lifetime.end.p0(i64 8, ptr %4) #5
  %7 = getelementptr inbounds nuw %"class.std::chrono::duration", ptr %2, i32 0, i32 0
  %8 = load i64, ptr %7, align 8
  ret i64 %8
}

; Function Attrs: mustprogress uwtable
define linkonce_odr dso_local i64 @_ZNSt6chronomiIlSt5ratioILl1ELl1000000000EElS2_EENSt11common_typeIJNS_8durationIT_T0_EENS4_IT1_T2_EEEE4typeERKS7_RKSA_(ptr noundef nonnull align 8 dereferenceable(8) %0, ptr noundef nonnull align 8 dereferenceable(8) %1) #1 comdat {
  %3 = alloca %"class.std::chrono::duration", align 8
  %4 = alloca ptr, align 8
  %5 = alloca ptr, align 8
  %6 = alloca i64, align 8
  %7 = alloca %"class.std::chrono::duration", align 8
  %8 = alloca %"class.std::chrono::duration", align 8
  store ptr %0, ptr %4, align 8, !tbaa !79
  store ptr %1, ptr %5, align 8, !tbaa !79
  call void @llvm.lifetime.start.p0(i64 8, ptr %6) #5
  call void @llvm.lifetime.start.p0(i64 8, ptr %7) #5
  %9 = load ptr, ptr %4, align 8, !tbaa !79
  call void @llvm.memcpy.p0.p0.i64(ptr align 8 %7, ptr align 8 %9, i64 8, i1 false), !tbaa.struct !70
  %10 = call noundef i64 @_ZNKSt6chrono8durationIlSt5ratioILl1ELl1000000000EEE5countEv(ptr noundef nonnull align 8 dereferenceable(8) %7)
  call void @llvm.lifetime.start.p0(i64 8, ptr %8) #5
  %11 = load ptr, ptr %5, align 8, !tbaa !79
  call void @llvm.memcpy.p0.p0.i64(ptr align 8 %8, ptr align 8 %11, i64 8, i1 false), !tbaa.struct !70
  %12 = call noundef i64 @_ZNKSt6chrono8durationIlSt5ratioILl1ELl1000000000EEE5countEv(ptr noundef nonnull align 8 dereferenceable(8) %8)
  %13 = sub nsw i64 %10, %12
  store i64 %13, ptr %6, align 8, !tbaa !56
  call void @_ZNSt6chrono8durationIlSt5ratioILl1ELl1000000000EEEC2IlvEERKT_(ptr noundef nonnull align 8 dereferenceable(8) %3, ptr noundef nonnull align 8 dereferenceable(8) %6)
  call void @llvm.lifetime.end.p0(i64 8, ptr %8) #5
  call void @llvm.lifetime.end.p0(i64 8, ptr %7) #5
  call void @llvm.lifetime.end.p0(i64 8, ptr %6) #5
  %14 = getelementptr inbounds nuw %"class.std::chrono::duration", ptr %3, i32 0, i32 0
  %15 = load i64, ptr %14, align 8
  ret i64 %15
}

; Function Attrs: mustprogress nounwind uwtable
define linkonce_odr dso_local i64 @_ZNKSt6chrono10time_pointINS_3_V212steady_clockENS_8durationIlSt5ratioILl1ELl1000000000EEEEE16time_since_epochEv(ptr noundef nonnull align 8 dereferenceable(8) %0) #4 comdat align 2 {
  %2 = alloca %"class.std::chrono::duration", align 8
  %3 = alloca ptr, align 8
  store ptr %0, ptr %3, align 8, !tbaa !77
  %4 = load ptr, ptr %3, align 8
  %5 = getelementptr inbounds nuw %"class.std::chrono::time_point", ptr %4, i32 0, i32 0
  call void @llvm.memcpy.p0.p0.i64(ptr align 8 %2, ptr align 8 %5, i64 8, i1 false), !tbaa.struct !70
  %6 = getelementptr inbounds nuw %"class.std::chrono::duration", ptr %2, i32 0, i32 0
  %7 = load i64, ptr %6, align 8
  ret i64 %7
}

; Function Attrs: mustprogress uwtable
define dso_local void @_ZN4pbrt14StatRegisterer18CallPixelCallbacksENS_6Point2IiEERNS_21PixelStatsAccumulatorE(i64 %0, ptr noundef nonnull align 8 dereferenceable(8) %1) #1 align 2 {
  %3 = alloca %"class.pbrt::Point2", align 4
  %4 = alloca ptr, align 8
  %5 = alloca i64, align 8
  %6 = alloca %"class.pbrt::Point2", align 4
  %7 = getelementptr inbounds nuw %"class.pbrt::Point2", ptr %3, i32 0, i32 0
  store i64 %0, ptr %7, align 4
  store ptr %1, ptr %4, align 8, !tbaa !39
  call void @llvm.lifetime.start.p0(i64 8, ptr %5) #5
  store i64 0, ptr %5, align 8, !tbaa !56
  br label %8

8:                                                ; preds = %24, %2
  %9 = load i64, ptr %5, align 8, !tbaa !56
  %10 = load ptr, ptr @_ZN4pbrtL14pixelStatFuncsE, align 8, !tbaa !82
  %11 = call noundef i64 @_ZNKSt6vectorIPFvN4pbrt6Point2IiEEiRNS0_21PixelStatsAccumulatorEESaIS6_EE4sizeEv(ptr noundef nonnull align 8 dereferenceable(24) %10) #5
  %12 = icmp ult i64 %9, %11
  br i1 %12, label %14, label %13

13:                                               ; preds = %8
  call void @llvm.lifetime.end.p0(i64 8, ptr %5) #5
  br label %27

14:                                               ; preds = %8
  %15 = load ptr, ptr @_ZN4pbrtL14pixelStatFuncsE, align 8, !tbaa !82
  %16 = load i64, ptr %5, align 8, !tbaa !56
  %17 = call noundef nonnull align 8 dereferenceable(8) ptr @_ZNSt6vectorIPFvN4pbrt6Point2IiEEiRNS0_21PixelStatsAccumulatorEESaIS6_EEixEm(ptr noundef nonnull align 8 dereferenceable(24) %15, i64 noundef %16) #5
  %18 = load ptr, ptr %17, align 8, !tbaa !38
  call void @llvm.memcpy.p0.p0.i64(ptr align 4 %6, ptr align 4 %3, i64 8, i1 false)
  %19 = load i64, ptr %5, align 8, !tbaa !56
  %20 = trunc i64 %19 to i32
  %21 = load ptr, ptr %4, align 8, !tbaa !39
  %22 = getelementptr inbounds nuw %"class.pbrt::Point2", ptr %6, i32 0, i32 0
  %23 = load i64, ptr %22, align 4
  call void %18(i64 %23, i32 noundef %20, ptr noundef nonnull align 8 dereferenceable(8) %21)
  br label %24

24:                                               ; preds = %14
  %25 = load i64, ptr %5, align 8, !tbaa !56
  %26 = add i64 %25, 1
  store i64 %26, ptr %5, align 8, !tbaa !56
  br label %8, !llvm.loop !84

27:                                               ; preds = %13
  ret void
}

; Function Attrs: mustprogress nounwind uwtable
define linkonce_odr dso_local noundef i64 @_ZNKSt6chrono8durationIlSt5ratioILl1ELl1000000000EEE5countEv(ptr noundef nonnull align 8 dereferenceable(8) %0) #4 comdat align 2 {
  %2 = alloca ptr, align 8
  store ptr %0, ptr %2, align 8, !tbaa !79
  %3 = load ptr, ptr %2, align 8
  %4 = getelementptr inbounds nuw %"class.std::chrono::duration", ptr %3, i32 0, i32 0
  %5 = load i64, ptr %4, align 8, !tbaa !81
  ret i64 %5
}

; Function Attrs: mustprogress uwtable
define linkonce_odr dso_local i64 @_ZNSt6chrono13duration_castINS_8durationIlSt5ratioILl1ELl1000000000EEEElS3_EENSt9enable_ifIXsr13__is_durationIT_EE5valueES6_E4typeERKNS1_IT0_T1_EE(ptr noundef nonnull align 8 dereferenceable(8) %0) #1 comdat {
  %2 = alloca %"class.std::chrono::duration", align 8
  %3 = alloca ptr, align 8
  store ptr %0, ptr %3, align 8, !tbaa !79
  %4 = load ptr, ptr %3, align 8, !tbaa !79
  %5 = call i64 @_ZNSt6chrono20__duration_cast_implINS_8durationIlSt5ratioILl1ELl1000000000EEEES2_ILl1ELl1EElLb1ELb1EE6__castIlS3_EES4_RKNS1_IT_T0_EE(ptr noundef nonnull align 8 dereferenceable(8) %4)
  %6 = getelementptr inbounds nuw %"class.std::chrono::duration", ptr %2, i32 0, i32 0
  store i64 %5, ptr %6, align 8
  %7 = getelementptr inbounds nuw %"class.std::chrono::duration", ptr %2, i32 0, i32 0
  %8 = load i64, ptr %7, align 8
  ret i64 %8
}

; Function Attrs: mustprogress uwtable
define linkonce_odr dso_local i64 @_ZNSt6chronomiINS_3_V212steady_clockENS_8durationIlSt5ratioILl1ELl1000000000EEEES6_EENSt11common_typeIJT0_T1_EE4typeERKNS_10time_pointIT_S8_EERKNSC_ISD_S9_EE(ptr noundef nonnull align 8 dereferenceable(8) %0, ptr noundef nonnull align 8 dereferenceable(8) %1) #1 comdat {
  %3 = alloca %"class.std::chrono::duration", align 8
  %4 = alloca ptr, align 8
  %5 = alloca ptr, align 8
  %6 = alloca %"class.std::chrono::duration", align 8
  %7 = alloca %"class.std::chrono::duration", align 8
  store ptr %0, ptr %4, align 8, !tbaa !77
  store ptr %1, ptr %5, align 8, !tbaa !77
  call void @llvm.lifetime.start.p0(i64 8, ptr %6) #5
  %8 = load ptr, ptr %4, align 8, !tbaa !77
  %9 = call i64 @_ZNKSt6chrono10time_pointINS_3_V212steady_clockENS_8durationIlSt5ratioILl1ELl1000000000EEEEE16time_since_epochEv(ptr noundef nonnull align 8 dereferenceable(8) %8)
  %10 = getelementptr inbounds nuw %"class.std::chrono::duration", ptr %6, i32 0, i32 0
  store i64 %9, ptr %10, align 8
  call void @llvm.lifetime.start.p0(i64 8, ptr %7) #5
  %11 = load ptr, ptr %5, align 8, !tbaa !77
  %12 = call i64 @_ZNKSt6chrono10time_pointINS_3_V212steady_clockENS_8durationIlSt5ratioILl1ELl1000000000EEEEE16time_since_epochEv(ptr noundef nonnull align 8 dereferenceable(8) %11)
  %13 = getelementptr inbounds nuw %"class.std::chrono::duration", ptr %7, i32 0, i32 0
  store i64 %12, ptr %13, align 8
  %14 = call i64 @_ZNSt6chronomiIlSt5ratioILl1ELl1000000000EElS2_EENSt11common_typeIJNS_8durationIT_T0_EENS4_IT1_T2_EEEE4typeERKS7_RKSA_(ptr noundef nonnull align 8 dereferenceable(8) %6, ptr noundef nonnull align 8 dereferenceable(8) %7)
  %15 = getelementptr inbounds nuw %"class.std::chrono::duration", ptr %3, i32 0, i32 0
  store i64 %14, ptr %15, align 8
  call void @llvm.lifetime.end.p0(i64 8, ptr %7) #5
  call void @llvm.lifetime.end.p0(i64 8, ptr %6) #5
  %16 = getelementptr inbounds nuw %"class.std::chrono::duration", ptr %3, i32 0, i32 0
  %17 = load i64, ptr %16, align 8
  ret i64 %17
}

; Function Attrs: mustprogress nounwind uwtable
define linkonce_odr dso_local noundef zeroext i1 @_ZNK4pbrt6Tuple2INS_6Point2EiEeqENS1_IiEE(ptr noundef nonnull align 4 dereferenceable(8) %0, i64 %1) #4 comdat align 2 {
  %3 = alloca %"class.pbrt::Point2", align 4
  %4 = alloca ptr, align 8
  %5 = getelementptr inbounds nuw %"class.pbrt::Point2", ptr %3, i32 0, i32 0
  store i64 %1, ptr %5, align 4
  store ptr %0, ptr %4, align 8, !tbaa !75
  %6 = load ptr, ptr %4, align 8
  %7 = getelementptr inbounds nuw %"class.pbrt::Tuple2", ptr %6, i32 0, i32 0
  %8 = load i32, ptr %7, align 4, !tbaa !52
  %9 = getelementptr inbounds nuw %"class.pbrt::Tuple2", ptr %3, i32 0, i32 0
  %10 = load i32, ptr %9, align 4, !tbaa !52
  %11 = icmp eq i32 %8, %10
  br i1 %11, label %12, label %18

12:                                               ; preds = %2
  %13 = getelementptr inbounds nuw %"class.pbrt::Tuple2", ptr %6, i32 0, i32 1
  %14 = load i32, ptr %13, align 4, !tbaa !50
  %15 = getelementptr inbounds nuw %"class.pbrt::Tuple2", ptr %3, i32 0, i32 1
  %16 = load i32, ptr %15, align 4, !tbaa !50
  %17 = icmp eq i32 %14, %16
  br label %18

18:                                               ; preds = %12, %2
  %19 = phi i1 [ false, %2 ], [ %17, %12 ]
  ret i1 %19
}

; Function Attrs: uwtable
define internal noundef ptr @_ZTWN4pbrtL16threadStatsStateE() #6 {
  call void @_ZTHN4pbrtL16threadStatsStateE()
  %1 = call align 8 ptr @llvm.threadlocal.address.p0(ptr align 8 @_ZN4pbrtL16threadStatsStateE)
  ret ptr %1
}

; Function Attrs: mustprogress uwtable
define dso_local void @_ZN4pbrt19StatsReportPixelEndENS_6Point2IiEE(i64 %0) #1 {
  %2 = alloca %"class.pbrt::Point2", align 4
  %3 = alloca ptr, align 8
  %4 = alloca %"class.pbrt::Point2", align 4
  %5 = alloca %"class.std::chrono::duration", align 8
  %6 = alloca %"class.std::chrono::time_point", align 8
  %7 = alloca float, align 4
  %8 = alloca %"class.std::chrono::duration", align 8
  %9 = alloca %"class.pbrt::Point2", align 4
  %10 = alloca %"class.pbrt::Point2", align 4
  %11 = getelementptr inbounds nuw %"class.pbrt::Point2", ptr %2, i32 0, i32 0
  store i64 %0, ptr %11, align 4
  %12 = load i8, ptr @_ZN4pbrt17pixelStatsEnabledE, align 1, !tbaa !21, !range !23, !noundef !24
  %13 = trunc i8 %12 to i1
  br i1 %13, label %15, label %14

14:                                               ; preds = %1
  br label %55

15:                                               ; preds = %1
  call void @llvm.lifetime.start.p0(i64 8, ptr %3) #5
  %16 = call ptr @_ZTWN4pbrtL16threadStatsStateE()
  store ptr %16, ptr %3, align 8, !tbaa !13
  %17 = load ptr, ptr %3, align 8, !tbaa !13
  %18 = getelementptr inbounds nuw %"struct.pbrt::ThreadStatsState", ptr %17, i32 0, i32 1
  %19 = load i8, ptr %18, align 8, !tbaa !65, !range !23, !noundef !24
  %20 = trunc i8 %19 to i1
  %21 = zext i1 %20 to i32
  %22 = icmp eq i32 %21, 1
  br i1 %22, label %23, label %29

23:                                               ; preds = %15
  %24 = load ptr, ptr %3, align 8, !tbaa !13
  %25 = getelementptr inbounds nuw %"struct.pbrt::ThreadStatsState", ptr %24, i32 0, i32 0
  call void @llvm.memcpy.p0.p0.i64(ptr align 4 %4, ptr align 4 %2, i64 8, i1 false)
  %26 = getelementptr inbounds nuw %"class.pbrt::Point2", ptr %4, i32 0, i32 0
  %27 = load i64, ptr %26, align 4
  %28 = call noundef zeroext i1 @_ZNK4pbrt6Tuple2INS_6Point2EiEeqENS1_IiEE(ptr noundef nonnull align 4 dereferenceable(8) %25, i64 %27)
  br i1 %28, label %31, label %29

29:                                               ; preds = %23, %15
  call void @_ZN4pbrt8LogFatalIJRA33_KcEEEvNS_8LogLevelEPS1_iS5_DpOT_(i32 noundef 2, ptr noundef @.str, i32 noundef 72, ptr noundef @.str.6, ptr noundef nonnull align 1 dereferenceable(33) @.str.8) #22
  unreachable

30:                                               ; No predecessors!
  br label %31

31:                                               ; preds = %30, %23
  %32 = load ptr, ptr %3, align 8, !tbaa !13
  %33 = getelementptr inbounds nuw %"struct.pbrt::ThreadStatsState", ptr %32, i32 0, i32 1
  store i8 0, ptr %33, align 8, !tbaa !65
  call void @llvm.lifetime.start.p0(i64 8, ptr %5) #5
  call void @llvm.lifetime.start.p0(i64 8, ptr %6) #5
  %34 = call i64 @_ZNSt6chrono3_V212steady_clock3nowEv() #5
  %35 = getelementptr inbounds nuw %"class.std::chrono::time_point", ptr %6, i32 0, i32 0
  %36 = getelementptr inbounds nuw %"class.std::chrono::duration", ptr %35, i32 0, i32 0
  store i64 %34, ptr %36, align 8
  %37 = load ptr, ptr %3, align 8, !tbaa !13
  %38 = getelementptr inbounds nuw %"struct.pbrt::ThreadStatsState", ptr %37, i32 0, i32 2
  %39 = call i64 @_ZNSt6chronomiINS_3_V212steady_clockENS_8durationIlSt5ratioILl1ELl1000000000EEEES6_EENSt11common_typeIJT0_T1_EE4typeERKNS_10time_pointIT_S8_EERKNSC_ISD_S9_EE(ptr noundef nonnull align 8 dereferenceable(8) %6, ptr noundef nonnull align 8 dereferenceable(8) %38)
  %40 = getelementptr inbounds nuw %"class.std::chrono::duration", ptr %5, i32 0, i32 0
  store i64 %39, ptr %40, align 8
  call void @llvm.lifetime.end.p0(i64 8, ptr %6) #5
  call void @llvm.lifetime.start.p0(i64 4, ptr %7) #5
  call void @llvm.lifetime.start.p0(i64 8, ptr %8) #5
  %41 = call i64 @_ZNSt6chrono13duration_castINS_8durationIlSt5ratioILl1ELl1000000000EEEElS3_EENSt9enable_ifIXsr13__is_durationIT_EE5valueES6_E4typeERKNS1_IT0_T1_EE(ptr noundef nonnull align 8 dereferenceable(8) %5)
  %42 = getelementptr inbounds nuw %"class.std::chrono::duration", ptr %8, i32 0, i32 0
  store i64 %41, ptr %42, align 8
  %43 = call noundef i64 @_ZNKSt6chrono8durationIlSt5ratioILl1ELl1000000000EEE5countEv(ptr noundef nonnull align 8 dereferenceable(8) %8)
  %44 = sitofp i64 %43 to float
  %45 = fdiv float %44, 1.000000e+06
  call void @llvm.lifetime.end.p0(i64 8, ptr %8) #5
  store float %45, ptr %7, align 4, !tbaa !9
  %46 = load ptr, ptr %3, align 8, !tbaa !13
  %47 = getelementptr inbounds nuw %"struct.pbrt::ThreadStatsState", ptr %46, i32 0, i32 3
  call void @llvm.memcpy.p0.p0.i64(ptr align 4 %9, ptr align 4 %2, i64 8, i1 false)
  %48 = load float, ptr %7, align 4, !tbaa !9
  %49 = getelementptr inbounds nuw %"class.pbrt::Point2", ptr %9, i32 0, i32 0
  %50 = load i64, ptr %49, align 4
  call void @_ZN4pbrt21PixelStatsAccumulator13ReportPixelMSENS_6Point2IiEEf(ptr noundef nonnull align 8 dereferenceable(8) %47, i64 %50, float noundef %48)
  call void @llvm.memcpy.p0.p0.i64(ptr align 4 %10, ptr align 4 %2, i64 8, i1 false)
  %51 = load ptr, ptr %3, align 8, !tbaa !13
  %52 = getelementptr inbounds nuw %"struct.pbrt::ThreadStatsState", ptr %51, i32 0, i32 3
  %53 = getelementptr inbounds nuw %"class.pbrt::Point2", ptr %10, i32 0, i32 0
  %54 = load i64, ptr %53, align 4
  call void @_ZN4pbrt14StatRegisterer18CallPixelCallbacksENS_6Point2IiEERNS_21PixelStatsAccumulatorE(i64 %54, ptr noundef nonnull align 8 dereferenceable(8) %52)
  call void @llvm.lifetime.end.p0(i64 4, ptr %7) #5
  call void @llvm.lifetime.end.p0(i64 8, ptr %5) #5
  call void @llvm.lifetime.end.p0(i64 8, ptr %3) #5
  br label %55

55:                                               ; preds = %31, %14
  ret void
}