; Function Attrs: uwtable
define dso_local void @_ZN4pbrt19StatsReportPixelEndENS_6Point2IiEE(i64 %0) local_unnamed_addr #4 {
  %2 = load i8, ptr @_ZN4pbrt17pixelStatsEnabledE, align 1, !tbaa !40, !range !42, !noundef !43
  %3 = trunc nuw i8 %2 to i1
  br i1 %3, label %4, label %_ZN4pbrt14StatRegisterer18CallPixelCallbacksENS_6Point2IiEERNS_21PixelStatsAccumulatorE.exit

4:                                                ; preds = %1
  %5 = load i8, ptr @__tls_guard, align 1
  %6 = icmp eq i8 %5, 0
  br i1 %6, label %7, label %_ZTWN4pbrtL16threadStatsStateE.exit, !prof !44

7:                                                ; preds = %4
  store i8 1, ptr @__tls_guard, align 1
  %8 = tail call ptr @llvm.invariant.start.p0(i64 1, ptr nonnull @__tls_guard)
  tail call fastcc void @__cxx_global_var_init.2()
  br label %_ZTWN4pbrtL16threadStatsStateE.exit

_ZTWN4pbrtL16threadStatsStateE.exit:              ; preds = %4, %7
  %9 = tail call noundef nonnull align 8 ptr @llvm.threadlocal.address.p0(ptr align 8 @_ZN4pbrtL16threadStatsStateE)
  %10 = getelementptr inbounds nuw i8, ptr %9, i64 8
  %11 = load i8, ptr %10, align 8, !tbaa !86, !range !42, !noundef !43
  %12 = trunc nuw i8 %11 to i1
  br i1 %12, label %13, label %20

13:                                               ; preds = %_ZTWN4pbrtL16threadStatsStateE.exit
  %.sroa.0.0.extract.trunc.i = trunc i64 %0 to i32
  %14 = load i32, ptr %9, align 8, !tbaa !29
  %15 = icmp eq i32 %14, %.sroa.0.0.extract.trunc.i
  %.sroa.2.0.extract.shift.i = lshr i64 %0, 32
  %.sroa.2.0.extract.trunc.i = trunc nuw i64 %.sroa.2.0.extract.shift.i to i32
  %16 = getelementptr inbounds nuw i8, ptr %9, i64 4
  %17 = load i32, ptr %16, align 4
  %18 = icmp eq i32 %17, %.sroa.2.0.extract.trunc.i
  %19 = select i1 %15, i1 %18, i1 false
  br i1 %19, label %21, label %20

20:                                               ; preds = %13, %_ZTWN4pbrtL16threadStatsStateE.exit
  tail call void @_ZN4pbrt8LogFatalIJRA33_KcEEEvNS_8LogLevelEPS1_iS5_DpOT_(i32 noundef 2, ptr noundef nonnull @.str, i32 noundef 72, ptr noundef nonnull @.str.6, ptr noundef nonnull align 1 dereferenceable(33) @.str.8) #28
  unreachable

21:                                               ; preds = %13
  store i8 0, ptr %10, align 8, !tbaa !86
  %22 = tail call i64 @_ZNSt6chrono3_V212steady_clock3nowEv() #27
  %23 = getelementptr inbounds nuw i8, ptr %9, i64 16
  %.sroa.0.0.copyload.i2.i = load i64, ptr %23, align 8, !tbaa !91
  %24 = sub nsw i64 %22, %.sroa.0.0.copyload.i2.i
  %25 = sitofp i64 %24 to float
  %26 = fdiv float %25, 1.000000e+06
  %27 = getelementptr inbounds nuw i8, ptr %9, i64 24
  tail call void @_ZN4pbrt21PixelStatsAccumulator13ReportPixelMSENS_6Point2IiEEf(ptr noundef nonnull align 8 dereferenceable(8) %27, i64 %0, float noundef %26)
  %28 = load ptr, ptr @_ZN4pbrtL14pixelStatFuncsE, align 8, !tbaa !95
  %29 = getelementptr inbounds nuw i8, ptr %28, i64 8
  %30 = load ptr, ptr %29, align 8, !tbaa !97
  %31 = load ptr, ptr %28, align 8, !tbaa !99
  %.not.i = icmp eq ptr %30, %31
  br i1 %.not.i, label %_ZN4pbrt14StatRegisterer18CallPixelCallbacksENS_6Point2IiEERNS_21PixelStatsAccumulatorE.exit, label %.lr.ph.i

.lr.ph.i:                                         ; preds = %21, %.lr.ph.i
  %32 = phi ptr [ %40, %.lr.ph.i ], [ %31, %21 ]
  %.05.i = phi i64 [ %36, %.lr.ph.i ], [ 0, %21 ]
  %33 = getelementptr inbounds nuw ptr, ptr %32, i64 %.05.i
  %34 = load ptr, ptr %33, align 8, !tbaa !39
  %35 = trunc i64 %.05.i to i32
  tail call void %34(i64 %0, i32 noundef %35, ptr noundef nonnull align 8 dereferenceable(8) %27)
  %36 = add nuw i64 %.05.i, 1
  %37 = load ptr, ptr @_ZN4pbrtL14pixelStatFuncsE, align 8, !tbaa !95
  %38 = getelementptr inbounds nuw i8, ptr %37, i64 8
  %39 = load ptr, ptr %38, align 8, !tbaa !97
  %40 = load ptr, ptr %37, align 8, !tbaa !99
  %41 = ptrtoint ptr %39 to i64
  %42 = ptrtoint ptr %40 to i64
  %43 = sub i64 %41, %42
  %44 = ashr exact i64 %43, 3
  %45 = icmp ult i64 %36, %44
  br i1 %45, label %.lr.ph.i, label %_ZN4pbrt14StatRegisterer18CallPixelCallbacksENS_6Point2IiEERNS_21PixelStatsAccumulatorE.exit, !llvm.loop !100

_ZN4pbrt14StatRegisterer18CallPixelCallbacksENS_6Point2IiEERNS_21PixelStatsAccumulatorE.exit: ; preds = %.lr.ph.i, %21, %1
  ret void
}